target datalayout = "e-m:e-p270:32:32-p271:32:32-p272:64:64-i64:64-i128:128-f80:128-n8:16:32:64-S128"
target triple = "x86_64-pc-linux-gnu"

%struct.DhKey = type { %struct.sp_int, %struct.sp_int, %struct.sp_int, ptr, i32 }
%struct.sp_int = type { i16, i16, [129 x i64] }

; Function Attrs: nounwind uwtable
define internal i32 @_ffc_validate_public_key(ptr noundef %0, ptr noundef %1, i32 noundef %2, ptr noundef %3, i32 noundef %4, i32 noundef %5) #0 {
  %7 = alloca i32, align 4
  %8 = alloca ptr, align 8
  %9 = alloca ptr, align 8
  %10 = alloca i32, align 4
  %11 = alloca ptr, align 8
  %12 = alloca i32, align 4
  %13 = alloca i32, align 4
  %14 = alloca i32, align 4
  %15 = alloca [1 x %struct.sp_int], align 16
  %16 = alloca [1 x %struct.sp_int], align 16
  %17 = alloca [1 x %struct.sp_int], align 16
  %18 = alloca i32, align 4
  store ptr %0, ptr %8, align 8, !tbaa !3
  store ptr %1, ptr %9, align 8, !tbaa !16
  store i32 %2, ptr %10, align 4, !tbaa !9
  store ptr %3, ptr %11, align 8, !tbaa !16
  store i32 %4, ptr %12, align 4, !tbaa !9
  store i32 %5, ptr %13, align 4, !tbaa !9
  call void @llvm.lifetime.start.p0(i64 4, ptr %14) #9
  store i32 0, ptr %14, align 4, !tbaa !9
  call void @llvm.lifetime.start.p0(i64 1040, ptr %15) #9
  call void @llvm.lifetime.start.p0(i64 1040, ptr %16) #9
  call void @llvm.lifetime.start.p0(i64 1040, ptr %17) #9
  %19 = load ptr, ptr %8, align 8, !tbaa !3
  %20 = icmp eq ptr %19, null
  br i1 %20, label %24, label %21

21:                                               ; preds = %6
  %22 = load ptr, ptr %9, align 8, !tbaa !16
  %23 = icmp eq ptr %22, null
  br i1 %23, label %24, label %25

24:                                               ; preds = %21, %6
  store i32 -173, ptr %7, align 4
  store i32 1, ptr %18, align 4
  br label %168

25:                                               ; preds = %21
  %26 = getelementptr inbounds [1 x %struct.sp_int], ptr %15, i64 0, i64 0
  %27 = getelementptr inbounds [1 x %struct.sp_int], ptr %16, i64 0, i64 0
  %28 = getelementptr inbounds [1 x %struct.sp_int], ptr %17, i64 0, i64 0
  %29 = call i32 @sp_init_multi(ptr noundef %26, ptr noundef %27, ptr noundef %28, ptr noundef null, ptr noundef null, ptr noundef null)
  %30 = icmp ne i32 %29, 0
  br i1 %30, label %31, label %32

31:                                               ; preds = %25
  store i32 -110, ptr %7, align 4
  store i32 1, ptr %18, align 4
  br label %168

32:                                               ; preds = %25
  br label %33

33:                                               ; preds = %32
  br label %34

34:                                               ; preds = %33
  br label %35

35:                                               ; preds = %34
  %36 = getelementptr inbounds [1 x %struct.sp_int], ptr %15, i64 0, i64 0
  %37 = load ptr, ptr %9, align 8, !tbaa !16
  %38 = load i32, ptr %10, align 4, !tbaa !9
  %39 = call i32 @sp_read_unsigned_bin(ptr noundef %36, ptr noundef %37, i32 noundef %38)
  %40 = icmp ne i32 %39, 0
  br i1 %40, label %41, label %42

41:                                               ; preds = %35
  store i32 -111, ptr %14, align 4, !tbaa !9
  br label %42

42:                                               ; preds = %41, %35
  %43 = load i32, ptr %14, align 4, !tbaa !9
  %44 = icmp eq i32 %43, 0
  br i1 %44, label %45, label %56

45:                                               ; preds = %42
  %46 = load ptr, ptr %11, align 8, !tbaa !16
  %47 = icmp ne ptr %46, null
  br i1 %47, label %48, label %56

48:                                               ; preds = %45
  %49 = getelementptr inbounds [1 x %struct.sp_int], ptr %17, i64 0, i64 0
  %50 = load ptr, ptr %11, align 8, !tbaa !16
  %51 = load i32, ptr %12, align 4, !tbaa !9
  %52 = call i32 @sp_read_unsigned_bin(ptr noundef %49, ptr noundef %50, i32 noundef %51)
  %53 = icmp ne i32 %52, 0
  br i1 %53, label %54, label %55

54:                                               ; preds = %48
  store i32 -111, ptr %14, align 4, !tbaa !9
  br label %55

55:                                               ; preds = %54, %48
  br label %74

56:                                               ; preds = %45, %42
  %57 = load ptr, ptr %8, align 8, !tbaa !3
  %58 = getelementptr inbounds nuw %struct.DhKey, ptr %57, i32 0, i32 2
  %59 = getelementptr inbounds nuw %struct.sp_int, ptr %58, i32 0, i32 0
  %60 = load i16, ptr %59, align 8, !tbaa !18
  %61 = zext i16 %60 to i32
  %62 = icmp eq i32 %61, 0
  %63 = zext i1 %62 to i32
  %64 = icmp eq i32 %63, 0
  br i1 %64, label %65, label %73

65:                                               ; preds = %56
  %66 = load ptr, ptr %8, align 8, !tbaa !3
  %67 = getelementptr inbounds nuw %struct.DhKey, ptr %66, i32 0, i32 2
  %68 = getelementptr inbounds [1 x %struct.sp_int], ptr %17, i64 0, i64 0
  %69 = call i32 @sp_copy(ptr noundef %67, ptr noundef %68)
  %70 = icmp ne i32 %69, 0
  br i1 %70, label %71, label %72

71:                                               ; preds = %65
  store i32 -110, ptr %14, align 4, !tbaa !9
  br label %72

72:                                               ; preds = %71, %65
  br label %73

73:                                               ; preds = %72, %56
  br label %74

74:                                               ; preds = %73, %55
  %75 = load i32, ptr %14, align 4, !tbaa !9
  %76 = icmp eq i32 %75, 0
  br i1 %76, label %77, label %82

77:                                               ; preds = %74
  %78 = getelementptr inbounds [1 x %struct.sp_int], ptr %15, i64 0, i64 0
  %79 = call i32 @sp_cmp_d(ptr noundef %78, i64 noundef 2)
  %80 = icmp eq i32 %79, -1
  br i1 %80, label %81, label %82

81:                                               ; preds = %77
  store i32 -120, ptr %14, align 4, !tbaa !9
  br label %82

82:                                               ; preds = %81, %77, %74
  %83 = load i32, ptr %14, align 4, !tbaa !9
  %84 = icmp eq i32 %83, 0
  br i1 %84, label %85, label %92

85:                                               ; preds = %82
  %86 = load ptr, ptr %8, align 8, !tbaa !3
  %87 = getelementptr inbounds nuw %struct.DhKey, ptr %86, i32 0, i32 0
  %88 = getelementptr inbounds [1 x %struct.sp_int], ptr %16, i64 0, i64 0
  %89 = call i32 @sp_copy(ptr noundef %87, ptr noundef %88)
  %90 = icmp ne i32 %89, 0
  br i1 %90, label %91, label %92

91:                                               ; preds = %85
  store i32 -110, ptr %14, align 4, !tbaa !9
  br label %92

92:                                               ; preds = %91, %85, %82
  %93 = load i32, ptr %14, align 4, !tbaa !9
  %94 = icmp eq i32 %93, 0
  br i1 %94, label %95, label %101

95:                                               ; preds = %92
  %96 = getelementptr inbounds [1 x %struct.sp_int], ptr %16, i64 0, i64 0
  %97 = getelementptr inbounds [1 x %struct.sp_int], ptr %16, i64 0, i64 0
  %98 = call i32 @sp_sub_d(ptr noundef %96, i64 noundef 2, ptr noundef %97)
  %99 = icmp ne i32 %98, 0
  br i1 %99, label %100, label %101

100:                                              ; preds = %95
  store i32 -114, ptr %14, align 4, !tbaa !9
  br label %101

101:                                              ; preds = %100, %95, %92
  %102 = load i32, ptr %14, align 4, !tbaa !9
  %103 = icmp eq i32 %102, 0
  br i1 %103, label %104, label %110

104:                                              ; preds = %101
  %105 = getelementptr inbounds [1 x %struct.sp_int], ptr %15, i64 0, i64 0
  %106 = getelementptr inbounds [1 x %struct.sp_int], ptr %16, i64 0, i64 0
  %107 = call i32 @sp_cmp(ptr noundef %105, ptr noundef %106)
  %108 = icmp eq i32 %107, 1
  br i1 %108, label %109, label %110

109:                                              ; preds = %104
  store i32 -120, ptr %14, align 4, !tbaa !9
  br label %110

110:                                              ; preds = %109, %104, %101
  %111 = load i32, ptr %13, align 4, !tbaa !9
  %112 = icmp ne i32 %111, 0
  br i1 %112, label %160, label %113

113:                                              ; preds = %110
  %114 = load i32, ptr %14, align 4, !tbaa !9
  %115 = icmp eq i32 %114, 0
  br i1 %115, label %116, label %136

116:                                              ; preds = %113
  %117 = load ptr, ptr %11, align 8, !tbaa !16
  %118 = icmp ne ptr %117, null
  br i1 %118, label %128, label %119

119:                                              ; preds = %116
  %120 = load ptr, ptr %8, align 8, !tbaa !3
  %121 = getelementptr inbounds nuw %struct.DhKey, ptr %120, i32 0, i32 2
  %122 = getelementptr inbounds nuw %struct.sp_int, ptr %121, i32 0, i32 0
  %123 = load i16, ptr %122, align 8, !tbaa !18
  %124 = zext i16 %123 to i32
  %125 = icmp eq i32 %124, 0
  %126 = zext i1 %125 to i32
  %127 = icmp eq i32 %126, 0
  br i1 %127, label %128, label %136

128:                                              ; preds = %119, %116
  %129 = load ptr, ptr %8, align 8, !tbaa !3
  %130 = getelementptr inbounds nuw %struct.DhKey, ptr %129, i32 0, i32 0
  %131 = getelementptr inbounds [1 x %struct.sp_int], ptr %16, i64 0, i64 0
  %132 = call i32 @sp_copy(ptr noundef %130, ptr noundef %131)
  %133 = icmp ne i32 %132, 0
  br i1 %133, label %134, label %135

134:                                              ; preds = %128
  store i32 -110, ptr %14, align 4, !tbaa !9
  br label %135

135:                                              ; preds = %134, %128
  br label %136

136:                                              ; preds = %135, %119, %113
  %137 = load i32, ptr %14, align 4, !tbaa !9
  %138 = icmp eq i32 %137, 0
  br i1 %138, label %139, label %159

139:                                              ; preds = %136
  %140 = load ptr, ptr %11, align 8, !tbaa !16
  %141 = icmp ne ptr %140, null
  br i1 %141, label %142, label %159

142:                                              ; preds = %139
  %143 = getelementptr inbounds [1 x %struct.sp_int], ptr %15, i64 0, i64 0
  %144 = getelementptr inbounds [1 x %struct.sp_int], ptr %17, i64 0, i64 0
  %145 = getelementptr inbounds [1 x %struct.sp_int], ptr %16, i64 0, i64 0
  %146 = getelementptr inbounds [1 x %struct.sp_int], ptr %15, i64 0, i64 0
  %147 = call i32 @sp_exptmod(ptr noundef %143, ptr noundef %144, ptr noundef %145, ptr noundef %146)
  %148 = icmp ne i32 %147, 0
  br i1 %148, label %149, label %150

149:                                              ; preds = %142
  store i32 -112, ptr %14, align 4, !tbaa !9
  br label %150

150:                                              ; preds = %149, %142
  %151 = load i32, ptr %14, align 4, !tbaa !9
  %152 = icmp eq i32 %151, 0
  br i1 %152, label %153, label %158

153:                                              ; preds = %150
  %154 = getelementptr inbounds [1 x %struct.sp_int], ptr %15, i64 0, i64 0
  %155 = call i32 @sp_cmp_d(ptr noundef %154, i64 noundef 1)
  %156 = icmp ne i32 %155, 0
  br i1 %156, label %157, label %158

157:                                              ; preds = %153
  store i32 -120, ptr %14, align 4, !tbaa !9
  br label %158

158:                                              ; preds = %157, %153, %150
  br label %159

159:                                              ; preds = %158, %139, %136
  br label %160

160:                                              ; preds = %159, %110
  %161 = getelementptr inbounds [1 x %struct.sp_int], ptr %15, i64 0, i64 0
  call void @sp_clear(ptr noundef %161)
  %162 = getelementptr inbounds [1 x %struct.sp_int], ptr %16, i64 0, i64 0
  call void @sp_clear(ptr noundef %162)
  %163 = getelementptr inbounds [1 x %struct.sp_int], ptr %17, i64 0, i64 0
  call void @sp_clear(ptr noundef %163)
  br label %164

164:                                              ; preds = %160
  br label %165

165:                                              ; preds = %164
  br label %166

166:                                              ; preds = %165
  %167 = load i32, ptr %14, align 4, !tbaa !9
  store i32 %167, ptr %7, align 4
  store i32 1, ptr %18, align 4
  br label %168

168:                                              ; preds = %166, %31, %24
  call void @llvm.lifetime.end.p0(i64 1040, ptr %17) #9
  call void @llvm.lifetime.end.p0(i64 1040, ptr %16) #9
  call void @llvm.lifetime.end.p0(i64 1040, ptr %15) #9
  call void @llvm.lifetime.end.p0(i64 4, ptr %14) #9
  %169 = load i32, ptr %7, align 4
  ret i32 %169
}