; Function Attrs: nounwind uwtable
define internal fastcc range(i32 -173, 1) i32 @_ffc_validate_public_key(ptr noundef %0, ptr noundef %1, i32 noundef %2, ptr noundef %3, i32 noundef %4, i32 noundef range(i32 0, 2) %5) unnamed_addr #1 {
  %7 = alloca [1 x %struct.sp_int], align 16
  %8 = alloca [1 x %struct.sp_int], align 16
  %9 = alloca [1 x %struct.sp_int], align 16
  call void @llvm.lifetime.start.p0(i64 1040, ptr nonnull %7) #14
  call void @llvm.lifetime.start.p0(i64 1040, ptr nonnull %8) #14
  call void @llvm.lifetime.start.p0(i64 1040, ptr nonnull %9) #14
  %10 = icmp eq ptr %0, null
  %11 = icmp eq ptr %1, null
  %or.cond = or i1 %10, %11
  br i1 %or.cond, label %45, label %12

12:                                               ; preds = %6
  %13 = call i32 @sp_init_multi(ptr noundef nonnull %7, ptr noundef nonnull %8, ptr noundef nonnull %9, ptr noundef null, ptr noundef null, ptr noundef null) #14
  %.not = icmp eq i32 %13, 0
  br i1 %.not, label %14, label %45

14:                                               ; preds = %12
  %15 = call i32 @sp_read_unsigned_bin(ptr noundef nonnull %7, ptr noundef nonnull %1, i32 noundef %2) #14
  %.not33 = icmp eq i32 %15, 0
  %spec.select = select i1 %.not33, i32 0, i32 -111
  %16 = icmp ne ptr %3, null
  %or.cond3 = and i1 %16, %.not33
  br i1 %or.cond3, label %17, label %19

17:                                               ; preds = %14
  %18 = call i32 @sp_read_unsigned_bin(ptr noundef nonnull %9, ptr noundef nonnull %3, i32 noundef %4) #14
  %.not36 = icmp eq i32 %18, 0
  br i1 %.not36, label %.thread55, label %.thread76

19:                                               ; preds = %14
  %20 = getelementptr inbounds nuw i8, ptr %0, i64 2080
  %21 = load i16, ptr %20, align 8, !tbaa !12
  %.not34 = icmp eq i16 %21, 0
  br i1 %.not34, label %select.unfold53, label %22

22:                                               ; preds = %19
  %23 = call i32 @sp_copy(ptr noundef nonnull %20, ptr noundef nonnull %9) #14
  %.not35 = icmp eq i32 %23, 0
  %24 = or i32 %23, %15
  %brmerge.not = icmp eq i32 %24, 0
  %.mux = select i1 %.not35, i32 %spec.select, i32 -110
  br i1 %brmerge.not, label %.thread55, label %.thread71

select.unfold53:                                  ; preds = %19
  br i1 %.not33, label %.thread55, label %.thread71

.thread55:                                        ; preds = %22, %17, %select.unfold53
  %25 = call i32 @sp_cmp_d(ptr noundef nonnull %7, i64 noundef 2) #14
  %26 = icmp eq i32 %25, -1
  br i1 %26, label %.thread76, label %27

27:                                               ; preds = %.thread55
  %28 = call i32 @sp_copy(ptr noundef nonnull %0, ptr noundef nonnull %8) #14
  %.not37 = icmp eq i32 %28, 0
  br i1 %.not37, label %29, label %.thread76

29:                                               ; preds = %27
  %30 = call i32 @sp_sub_d(ptr noundef nonnull %8, i64 noundef 2, ptr noundef nonnull %8) #14
  %.not38 = icmp eq i32 %30, 0
  br i1 %.not38, label %31, label %.thread76

31:                                               ; preds = %29
  %32 = call i32 @sp_cmp(ptr noundef nonnull %7, ptr noundef nonnull %8) #14
  %33 = icmp eq i32 %32, 1
  %spec.select49 = select i1 %33, i32 -120, i32 0
  br label %.thread71

.thread71:                                        ; preds = %22, %select.unfold53, %31
  %.5 = phi i32 [ %spec.select49, %31 ], [ -111, %select.unfold53 ], [ %.mux, %22 ]
  %.not39 = icmp eq i32 %5, 0
  %34 = icmp eq i32 %.5, 0
  %or.cond79 = select i1 %.not39, i1 %34, i1 false
  br i1 %or.cond79, label %35, label %.thread76

35:                                               ; preds = %.thread71
  br i1 %16, label %39, label %36

36:                                               ; preds = %35
  %37 = getelementptr inbounds nuw i8, ptr %0, i64 2080
  %38 = load i16, ptr %37, align 8, !tbaa !12
  %.not40 = icmp eq i16 %38, 0
  br i1 %.not40, label %.thread76, label %39

39:                                               ; preds = %35, %36
  %40 = call i32 @sp_copy(ptr noundef nonnull %0, ptr noundef nonnull %8) #14
  %.not41 = icmp eq i32 %40, 0
  %spec.select50 = select i1 %.not41, i32 0, i32 -110
  %or.cond5 = and i1 %16, %.not41
  br i1 %or.cond5, label %41, label %.thread76

41:                                               ; preds = %39
  %42 = call i32 @sp_exptmod(ptr noundef nonnull %7, ptr noundef nonnull %9, ptr noundef nonnull %8, ptr noundef nonnull %7) #14
  %.not42 = icmp eq i32 %42, 0
  br i1 %.not42, label %43, label %.thread76

43:                                               ; preds = %41
  %44 = call i32 @sp_cmp_d(ptr noundef nonnull %7, i64 noundef 1) #14
  %.not43 = icmp eq i32 %44, 0
  %spec.select52 = select i1 %.not43, i32 0, i32 -120
  br label %.thread76

.thread76:                                        ; preds = %.thread55, %17, %27, %29, %36, %43, %39, %41, %.thread71
  %.6 = phi i32 [ %.5, %.thread71 ], [ -112, %41 ], [ %spec.select50, %39 ], [ %spec.select52, %43 ], [ 0, %36 ], [ -120, %.thread55 ], [ -111, %17 ], [ -110, %27 ], [ -114, %29 ]
  call void @sp_clear(ptr noundef nonnull %7) #14
  call void @sp_clear(ptr noundef nonnull %8) #14
  call void @sp_clear(ptr noundef nonnull %9) #14
  br label %45

45:                                               ; preds = %12, %6, %.thread76
  %.029 = phi i32 [ %.6, %.thread76 ], [ -173, %6 ], [ -110, %12 ]
  call void @llvm.lifetime.end.p0(i64 1040, ptr nonnull %9) #14
  call void @llvm.lifetime.end.p0(i64 1040, ptr nonnull %8) #14
  call void @llvm.lifetime.end.p0(i64 1040, ptr nonnull %7) #14
  ret i32 %.029
}